; Function Attrs: nounwind uwtable
define noundef ptr @Aig_ManDupReprBasic(ptr noundef %0) local_unnamed_addr #6 {
  %2 = tail call ptr @Aig_ManDupRepr(ptr noundef %0, i32 noundef 0)
  %3 = tail call i32 @Aig_ManSeqCleanupBasic(ptr noundef %2) #18
  %4 = getelementptr inbounds nuw i8, ptr %0, i64 32
  %5 = load ptr, ptr %4, align 8
  %6 = getelementptr i8, ptr %5, i64 4
  %.val17 = load i32, ptr %6, align 4
  %7 = icmp sgt i32 %.val17, 0
  br i1 %7, label %.lr.ph, label %.critedge

.lr.ph:                                           ; preds = %1, %20
  %8 = phi ptr [ %21, %20 ], [ %5, %1 ]
  %indvars.iv = phi i64 [ %indvars.iv.next, %20 ], [ 0, %1 ]
  %9 = getelementptr i8, ptr %8, i64 8
  %.val14 = load ptr, ptr %9, align 8
  %10 = getelementptr inbounds nuw ptr, ptr %.val14, i64 %indvars.iv
  %11 = load ptr, ptr %10, align 8
  %12 = icmp eq ptr %11, null
  br i1 %12, label %20, label %13

13:                                               ; preds = %.lr.ph
  %14 = getelementptr inbounds nuw i8, ptr %11, i64 40
  %15 = load ptr, ptr %14, align 8
  %.not = icmp eq ptr %15, null
  br i1 %.not, label %20, label %16

16:                                               ; preds = %13
  %17 = getelementptr i8, ptr %15, i64 24
  %.val15 = load i64, ptr %17, align 8
  %18 = and i64 %.val15, 7
  %.not16 = icmp eq i64 %18, 0
  br i1 %.not16, label %19, label %20

19:                                               ; preds = %16
  store ptr null, ptr %14, align 8
  %.pre = load ptr, ptr %4, align 8
  br label %20

20:                                               ; preds = %.lr.ph, %19, %16, %13
  %21 = phi ptr [ %8, %.lr.ph ], [ %.pre, %19 ], [ %8, %16 ], [ %8, %13 ]
  %indvars.iv.next = add nuw nsw i64 %indvars.iv, 1
  %22 = getelementptr i8, ptr %21, i64 4
  %.val = load i32, ptr %22, align 4
  %23 = sext i32 %.val to i64
  %24 = icmp slt i64 %indvars.iv.next, %23
  br i1 %24, label %.lr.ph, label %.critedge, !llvm.loop !10

.critedge:                                        ; preds = %20, %1
  ret ptr %2
}